target datalayout = "e-m:e-p270:32:32-p271:32:32-p272:64:64-i64:64-i128:128-f80:128-n8:16:32:64-S128"
target triple = "x86_64-pc-linux-gnu"

%struct.AVFormatContext = type { ptr, ptr, ptr, ptr, ptr, i32, i32, ptr, i32, ptr, i32, ptr, ptr, i64, i64, i64, i32, i32, i32, i64, i64, ptr, i32, i32, ptr, i32, i32, i32, i32, ptr, i64, i32, i32, %struct.AVIOInterruptCB, i32, i32, i32, i32, i64, i32, i32, i32, i32, i32, i32, i32, i32, i32, i32, i32, i32, i64, i32, i32, i32, i32, i32, ptr, ptr, ptr, ptr, i32, ptr, ptr, ptr, ptr, i32, ptr, ptr, i64, ptr, ptr, ptr, i64 }
%struct.AVIOInterruptCB = type { ptr, ptr }
%struct.MatroskaDemuxContext = type { ptr, ptr, [16 x %struct.MatroskaLevel], i32, i32, i64, i32, i64, double, ptr, ptr, %struct.EbmlBin, %struct.EbmlList, %struct.EbmlList, %struct.EbmlList, %struct.EbmlList, %struct.EbmlList, %struct.EbmlList, i64, ptr, %struct.PacketList, i32, i32, i64, i32, [64 x %struct.MatroskaLevel1Element], i32, %struct.MatroskaCluster, i32, i32, i32 }
%struct.MatroskaLevel = type { i64, i64 }
%struct.EbmlBin = type { i32, ptr, ptr, i64 }
%struct.EbmlList = type { i32, i32, ptr }
%struct.PacketList = type { ptr, ptr }
%struct.MatroskaLevel1Element = type { i64, i32, i32 }
%struct.MatroskaCluster = type { %struct.MatroskaBlock, i64, i64 }
%struct.MatroskaBlock = type { i64, %struct.CountedElement, i64, %struct.EbmlBin, %struct.EbmlList, i64 }
%struct.CountedElement = type { %union.anon.0, i32 }
%union.anon.0 = type { i64 }
%struct.MatroskaTrack = type { i64, i64, i64, ptr, ptr, %struct.EbmlBin, ptr, double, i64, i64, i64, i64, i64, i64, i64, %struct.CountedElement, i64, %struct.MatroskaTrackVideo, %struct.MatroskaTrackAudio, %struct.MatroskaTrackOperation, %struct.EbmlList, i64, i64, ptr, i64, i32, i32, i64, %struct.EbmlList, [256 x i32], i32 }
%struct.MatroskaTrackVideo = type { double, i64, i64, i64, i64, i64, i64, %struct.EbmlBin, i64, i64, i64, i64, i64, i64, i64, i64, i64, %struct.EbmlList, %struct.MatroskaTrackVideoProjection }
%struct.MatroskaTrackVideoProjection = type { i64, %struct.EbmlBin, double, double, double }
%struct.MatroskaTrackAudio = type { double, double, i64, i64, i32, i32, i32, i32, i32, i32, i64, ptr }
%struct.MatroskaTrackOperation = type { %struct.EbmlList }
%struct.MatroskaIndex = type { i64, %struct.EbmlList }
%struct.MatroskaIndexPos = type { i64, i64 }

@.str.80 = private unnamed_addr constant [35 x i8] c"Dropping apparently-broken index.\0A\00", align 1
@.str.81 = private unnamed_addr constant [26 x i8] c"Invalid track number %lu\0A\00", align 1

; Function Attrs: nounwind uwtable
define internal ptr @matroska_find_track_by_num(ptr noundef %0, i64 noundef %1) #0 {
  %3 = alloca ptr, align 8
  %4 = alloca ptr, align 8
  %5 = alloca i64, align 8
  %6 = alloca ptr, align 8
  %7 = alloca i32, align 4
  %8 = alloca i32, align 4
  store ptr %0, ptr %4, align 8, !tbaa !27
  store i64 %1, ptr %5, align 8, !tbaa !49
  call void @llvm.lifetime.start.p0(i64 8, ptr %6) #14
  %9 = load ptr, ptr %4, align 8, !tbaa !27
  %10 = getelementptr inbounds nuw %struct.MatroskaDemuxContext, ptr %9, i32 0, i32 12
  %11 = getelementptr inbounds nuw %struct.EbmlList, ptr %10, i32 0, i32 2
  %12 = load ptr, ptr %11, align 8, !tbaa !51
  store ptr %12, ptr %6, align 8, !tbaa !52
  call void @llvm.lifetime.start.p0(i64 4, ptr %7) #14
  store i32 0, ptr %7, align 4, !tbaa !9
  br label %13

13:                                               ; preds = %35, %2
  %14 = load i32, ptr %7, align 4, !tbaa !9
  %15 = load ptr, ptr %4, align 8, !tbaa !27
  %16 = getelementptr inbounds nuw %struct.MatroskaDemuxContext, ptr %15, i32 0, i32 12
  %17 = getelementptr inbounds nuw %struct.EbmlList, ptr %16, i32 0, i32 0
  %18 = load i32, ptr %17, align 8, !tbaa !29
  %19 = icmp slt i32 %14, %18
  br i1 %19, label %20, label %38

20:                                               ; preds = %13
  %21 = load ptr, ptr %6, align 8, !tbaa !52
  %22 = load i32, ptr %7, align 4, !tbaa !9
  %23 = sext i32 %22 to i64
  %24 = getelementptr inbounds %struct.MatroskaTrack, ptr %21, i64 %23
  %25 = getelementptr inbounds nuw %struct.MatroskaTrack, ptr %24, i32 0, i32 0
  %26 = load i64, ptr %25, align 8, !tbaa !54
  %27 = load i64, ptr %5, align 8, !tbaa !49
  %28 = icmp eq i64 %26, %27
  br i1 %28, label %29, label %34

29:                                               ; preds = %20
  %30 = load ptr, ptr %6, align 8, !tbaa !52
  %31 = load i32, ptr %7, align 4, !tbaa !9
  %32 = sext i32 %31 to i64
  %33 = getelementptr inbounds %struct.MatroskaTrack, ptr %30, i64 %32
  store ptr %33, ptr %3, align 8
  store i32 1, ptr %8, align 4
  br label %43

34:                                               ; preds = %20
  br label %35

35:                                               ; preds = %34
  %36 = load i32, ptr %7, align 4, !tbaa !9
  %37 = add nsw i32 %36, 1
  store i32 %37, ptr %7, align 4, !tbaa !9
  br label %13, !llvm.loop !266

38:                                               ; preds = %13
  %39 = load ptr, ptr %4, align 8, !tbaa !27
  %40 = getelementptr inbounds nuw %struct.MatroskaDemuxContext, ptr %39, i32 0, i32 1
  %41 = load ptr, ptr %40, align 8, !tbaa !79
  %42 = load i64, ptr %5, align 8, !tbaa !49
  call void (ptr, i32, ptr, ...) @av_log(ptr noundef %41, i32 noundef 16, ptr noundef @.str.81, i64 noundef %42)
  store ptr null, ptr %3, align 8
  store i32 1, ptr %8, align 4
  br label %43

43:                                               ; preds = %38, %29
  call void @llvm.lifetime.end.p0(i64 4, ptr %7) #14
  call void @llvm.lifetime.end.p0(i64 8, ptr %6) #14
  %44 = load ptr, ptr %3, align 8
  ret ptr %44
}

; Function Attrs: nounwind uwtable
define internal void @matroska_add_index_entries(ptr noundef %0) #0 {
  %2 = alloca ptr, align 8
  %3 = alloca ptr, align 8
  %4 = alloca ptr, align 8
  %5 = alloca i64, align 8
  %6 = alloca i32, align 4
  %7 = alloca i32, align 4
  %8 = alloca i32, align 4
  %9 = alloca ptr, align 8
  %10 = alloca ptr, align 8
  %11 = alloca ptr, align 8
  store ptr %0, ptr %2, align 8, !tbaa !27
  call void @llvm.lifetime.start.p0(i64 8, ptr %3) #14
  call void @llvm.lifetime.start.p0(i64 8, ptr %4) #14
  call void @llvm.lifetime.start.p0(i64 8, ptr %5) #14
  store i64 1, ptr %5, align 8, !tbaa !49
  call void @llvm.lifetime.start.p0(i64 4, ptr %6) #14
  call void @llvm.lifetime.start.p0(i64 4, ptr %7) #14
  %12 = load ptr, ptr %2, align 8, !tbaa !27
  %13 = getelementptr inbounds nuw %struct.MatroskaDemuxContext, ptr %12, i32 0, i32 1
  %14 = load ptr, ptr %13, align 8, !tbaa !79
  %15 = getelementptr inbounds nuw %struct.AVFormatContext, ptr %14, i32 0, i32 18
  %16 = load i32, ptr %15, align 8, !tbaa !187
  %17 = and i32 %16, 2
  %18 = icmp ne i32 %17, 0
  br i1 %18, label %19, label %20

19:                                               ; preds = %1
  store i32 1, ptr %8, align 4
  br label %117

20:                                               ; preds = %1
  %21 = load ptr, ptr %2, align 8, !tbaa !27
  %22 = getelementptr inbounds nuw %struct.MatroskaDemuxContext, ptr %21, i32 0, i32 15
  store ptr %22, ptr %3, align 8, !tbaa !77
  %23 = load ptr, ptr %3, align 8, !tbaa !77
  %24 = getelementptr inbounds nuw %struct.EbmlList, ptr %23, i32 0, i32 2
  %25 = load ptr, ptr %24, align 8, !tbaa !102
  store ptr %25, ptr %4, align 8, !tbaa !216
  %26 = load ptr, ptr %3, align 8, !tbaa !77
  %27 = getelementptr inbounds nuw %struct.EbmlList, ptr %26, i32 0, i32 0
  %28 = load i32, ptr %27, align 8, !tbaa !105
  %29 = icmp slt i32 %28, 2
  br i1 %29, label %30, label %31

30:                                               ; preds = %20
  store i32 1, ptr %8, align 4
  br label %117

31:                                               ; preds = %20
  %32 = load ptr, ptr %4, align 8, !tbaa !216
  %33 = getelementptr inbounds %struct.MatroskaIndex, ptr %32, i64 1
  %34 = getelementptr inbounds nuw %struct.MatroskaIndex, ptr %33, i32 0, i32 0
  %35 = load i64, ptr %34, align 8, !tbaa !218
  %36 = uitofp i64 %35 to double
  %37 = load ptr, ptr %2, align 8, !tbaa !27
  %38 = getelementptr inbounds nuw %struct.MatroskaDemuxContext, ptr %37, i32 0, i32 7
  %39 = load i64, ptr %38, align 8, !tbaa !96
  %40 = uitofp i64 %39 to double
  %41 = fdiv nsz double 1.000000e+14, %40
  %42 = fcmp nsz ogt double %36, %41
  br i1 %42, label %43, label %47

43:                                               ; preds = %31
  %44 = load ptr, ptr %2, align 8, !tbaa !27
  %45 = getelementptr inbounds nuw %struct.MatroskaDemuxContext, ptr %44, i32 0, i32 1
  %46 = load ptr, ptr %45, align 8, !tbaa !79
  call void (ptr, i32, ptr, ...) @av_log(ptr noundef %46, i32 noundef 24, ptr noundef @.str.80)
  store i32 1, ptr %8, align 4
  br label %117

47:                                               ; preds = %31
  store i32 0, ptr %6, align 4, !tbaa !9
  br label %48

48:                                               ; preds = %113, %47
  %49 = load i32, ptr %6, align 4, !tbaa !9
  %50 = load ptr, ptr %3, align 8, !tbaa !77
  %51 = getelementptr inbounds nuw %struct.EbmlList, ptr %50, i32 0, i32 0
  %52 = load i32, ptr %51, align 8, !tbaa !105
  %53 = icmp slt i32 %49, %52
  br i1 %53, label %54, label %116

54:                                               ; preds = %48
  call void @llvm.lifetime.start.p0(i64 8, ptr %9) #14
  %55 = load ptr, ptr %4, align 8, !tbaa !216
  %56 = load i32, ptr %6, align 4, !tbaa !9
  %57 = sext i32 %56 to i64
  %58 = getelementptr inbounds %struct.MatroskaIndex, ptr %55, i64 %57
  %59 = getelementptr inbounds nuw %struct.MatroskaIndex, ptr %58, i32 0, i32 1
  store ptr %59, ptr %9, align 8, !tbaa !77
  call void @llvm.lifetime.start.p0(i64 8, ptr %10) #14
  %60 = load ptr, ptr %9, align 8, !tbaa !77
  %61 = getelementptr inbounds nuw %struct.EbmlList, ptr %60, i32 0, i32 2
  %62 = load ptr, ptr %61, align 8, !tbaa !102
  store ptr %62, ptr %10, align 8, !tbaa !220
  store i32 0, ptr %7, align 4, !tbaa !9
  br label %63

63:                                               ; preds = %109, %54
  %64 = load i32, ptr %7, align 4, !tbaa !9
  %65 = load ptr, ptr %9, align 8, !tbaa !77
  %66 = getelementptr inbounds nuw %struct.EbmlList, ptr %65, i32 0, i32 0
  %67 = load i32, ptr %66, align 8, !tbaa !105
  %68 = icmp slt i32 %64, %67
  br i1 %68, label %69, label %112

69:                                               ; preds = %63
  call void @llvm.lifetime.start.p0(i64 8, ptr %11) #14
  %70 = load ptr, ptr %2, align 8, !tbaa !27
  %71 = load ptr, ptr %10, align 8, !tbaa !220
  %72 = load i32, ptr %7, align 4, !tbaa !9
  %73 = sext i32 %72 to i64
  %74 = getelementptr inbounds %struct.MatroskaIndexPos, ptr %71, i64 %73
  %75 = getelementptr inbounds nuw %struct.MatroskaIndexPos, ptr %74, i32 0, i32 0
  %76 = load i64, ptr %75, align 8, !tbaa !222
  %77 = call ptr @matroska_find_track_by_num(ptr noundef %70, i64 noundef %76)
  store ptr %77, ptr %11, align 8, !tbaa !52
  %78 = load ptr, ptr %11, align 8, !tbaa !52
  %79 = icmp ne ptr %78, null
  br i1 %79, label %80, label %108

80:                                               ; preds = %69
  %81 = load ptr, ptr %11, align 8, !tbaa !52
  %82 = getelementptr inbounds nuw %struct.MatroskaTrack, ptr %81, i32 0, i32 23
  %83 = load ptr, ptr %82, align 8, !tbaa !224
  %84 = icmp ne ptr %83, null
  br i1 %84, label %85, label %108

85:                                               ; preds = %80
  %86 = load ptr, ptr %11, align 8, !tbaa !52
  %87 = getelementptr inbounds nuw %struct.MatroskaTrack, ptr %86, i32 0, i32 23
  %88 = load ptr, ptr %87, align 8, !tbaa !224
  %89 = load ptr, ptr %10, align 8, !tbaa !220
  %90 = load i32, ptr %7, align 4, !tbaa !9
  %91 = sext i32 %90 to i64
  %92 = getelementptr inbounds %struct.MatroskaIndexPos, ptr %89, i64 %91
  %93 = getelementptr inbounds nuw %struct.MatroskaIndexPos, ptr %92, i32 0, i32 1
  %94 = load i64, ptr %93, align 8, !tbaa !225
  %95 = load ptr, ptr %2, align 8, !tbaa !27
  %96 = getelementptr inbounds nuw %struct.MatroskaDemuxContext, ptr %95, i32 0, i32 18
  %97 = load i64, ptr %96, align 8, !tbaa !176
  %98 = add i64 %94, %97
  %99 = load ptr, ptr %4, align 8, !tbaa !216
  %100 = load i32, ptr %6, align 4, !tbaa !9
  %101 = sext i32 %100 to i64
  %102 = getelementptr inbounds %struct.MatroskaIndex, ptr %99, i64 %101
  %103 = getelementptr inbounds nuw %struct.MatroskaIndex, ptr %102, i32 0, i32 0
  %104 = load i64, ptr %103, align 8, !tbaa !218
  %105 = load i64, ptr %5, align 8, !tbaa !49
  %106 = udiv i64 %104, %105
  %107 = call i32 @av_add_index_entry(ptr noundef %88, i64 noundef %98, i64 noundef %106, i32 noundef 0, i32 noundef 0, i32 noundef 1)
  br label %108

108:                                              ; preds = %85, %80, %69
  call void @llvm.lifetime.end.p0(i64 8, ptr %11) #14
  br label %109

109:                                              ; preds = %108
  %110 = load i32, ptr %7, align 4, !tbaa !9
  %111 = add nsw i32 %110, 1
  store i32 %111, ptr %7, align 4, !tbaa !9
  br label %63, !llvm.loop !226

112:                                              ; preds = %63
  call void @llvm.lifetime.end.p0(i64 8, ptr %10) #14
  call void @llvm.lifetime.end.p0(i64 8, ptr %9) #14
  br label %113

113:                                              ; preds = %112
  %114 = load i32, ptr %6, align 4, !tbaa !9
  %115 = add nsw i32 %114, 1
  store i32 %115, ptr %6, align 4, !tbaa !9
  br label %48, !llvm.loop !227

116:                                              ; preds = %48
  store i32 0, ptr %8, align 4
  br label %117

117:                                              ; preds = %116, %43, %30, %19
  call void @llvm.lifetime.end.p0(i64 4, ptr %7) #14
  call void @llvm.lifetime.end.p0(i64 4, ptr %6) #14
  call void @llvm.lifetime.end.p0(i64 8, ptr %5) #14
  call void @llvm.lifetime.end.p0(i64 8, ptr %4) #14
  call void @llvm.lifetime.end.p0(i64 8, ptr %3) #14
  %118 = load i32, ptr %8, align 4
  switch i32 %118, label %120 [
    i32 0, label %119
    i32 1, label %119
  ]

119:                                              ; preds = %117, %117
  ret void

120:                                              ; preds = %117
  unreachable
}