; Function Attrs: nounwind uwtable
define internal fastcc void @matroska_add_index_entries(ptr noundef readonly captures(none) %0) unnamed_addr #0 {
  %2 = getelementptr inbounds nuw i8, ptr %0, i64 8
  %3 = load ptr, ptr %2, align 8, !tbaa !58
  %4 = getelementptr inbounds nuw i8, ptr %3, i64 128
  %5 = load i32, ptr %4, align 8, !tbaa !62
  %6 = and i32 %5, 2
  %.not = icmp eq i32 %6, 0
  br i1 %.not, label %7, label %.loopexit

7:                                                ; preds = %1
  %8 = getelementptr inbounds nuw i8, ptr %0, i64 408
  %9 = getelementptr inbounds nuw i8, ptr %0, i64 416
  %10 = load ptr, ptr %9, align 8, !tbaa !52
  %11 = load i32, ptr %8, align 8, !tbaa !53
  %12 = icmp slt i32 %11, 2
  br i1 %12, label %.loopexit, label %13

13:                                               ; preds = %7
  %14 = getelementptr inbounds nuw i8, ptr %10, i64 24
  %15 = load i64, ptr %14, align 8, !tbaa !388
  %16 = uitofp i64 %15 to double
  %17 = getelementptr inbounds nuw i8, ptr %0, i64 296
  %18 = load i64, ptr %17, align 8, !tbaa !87
  %19 = uitofp i64 %18 to double
  %20 = fdiv nsz double 1.000000e+14, %19
  %21 = fcmp nsz olt double %20, %16
  br i1 %21, label %25, label %.lr.ph37

.lr.ph37:                                         ; preds = %13
  %22 = getelementptr inbounds nuw i8, ptr %0, i64 360
  %23 = getelementptr inbounds nuw i8, ptr %0, i64 368
  %24 = getelementptr inbounds nuw i8, ptr %0, i64 456
  br label %26

25:                                               ; preds = %13
  tail call void (ptr, i32, ptr, ...) @av_log(ptr noundef nonnull %3, i32 noundef 24, ptr noundef nonnull @.str.80) #15
  br label %.loopexit

26:                                               ; preds = %.lr.ph37, %._crit_edge
  %27 = phi i32 [ %11, %.lr.ph37 ], [ %57, %._crit_edge ]
  %indvars.iv40 = phi i64 [ 0, %.lr.ph37 ], [ %indvars.iv.next41, %._crit_edge ]
  %28 = getelementptr inbounds nuw %struct.MatroskaIndex, ptr %10, i64 %indvars.iv40
  %29 = getelementptr inbounds nuw i8, ptr %28, i64 8
  %30 = getelementptr inbounds nuw i8, ptr %28, i64 16
  %31 = load ptr, ptr %30, align 8, !tbaa !52
  %32 = load i32, ptr %29, align 8, !tbaa !53
  %33 = icmp sgt i32 %32, 0
  br i1 %33, label %.lr.ph, label %._crit_edge

.lr.ph:                                           ; preds = %26, %53
  %indvars.iv = phi i64 [ %indvars.iv.next, %53 ], [ 0, %26 ]
  %34 = getelementptr inbounds nuw %struct.MatroskaIndexPos, ptr %31, i64 %indvars.iv
  %35 = load i64, ptr %34, align 8, !tbaa !390
  %36 = load ptr, ptr %23, align 8, !tbaa !45
  %37 = load i32, ptr %22, align 8, !tbaa !24
  %38 = icmp sgt i32 %37, 0
  br i1 %38, label %.lr.ph.preheader.i, label %matroska_find_track_by_num.exit.thread

.lr.ph.preheader.i:                               ; preds = %.lr.ph
  %wide.trip.count.i = zext nneg i32 %37 to i64
  br label %.lr.ph.i

39:                                               ; preds = %.lr.ph.i
  %indvars.iv.next.i = add nuw nsw i64 %indvars.iv.i, 1
  %exitcond.not.i = icmp eq i64 %indvars.iv.next.i, %wide.trip.count.i
  br i1 %exitcond.not.i, label %matroska_find_track_by_num.exit.thread, label %.lr.ph.i, !llvm.loop !392

.lr.ph.i:                                         ; preds = %39, %.lr.ph.preheader.i
  %indvars.iv.i = phi i64 [ 0, %.lr.ph.preheader.i ], [ %indvars.iv.next.i, %39 ]
  %40 = getelementptr inbounds nuw %struct.MatroskaTrack, ptr %36, i64 %indvars.iv.i
  %41 = load i64, ptr %40, align 8, !tbaa !46
  %42 = icmp eq i64 %41, %35
  br i1 %42, label %matroska_find_track_by_num.exit, label %39

matroska_find_track_by_num.exit.thread:           ; preds = %39, %.lr.ph
  %43 = load ptr, ptr %2, align 8, !tbaa !58
  tail call void (ptr, i32, ptr, ...) @av_log(ptr noundef %43, i32 noundef 16, ptr noundef nonnull @.str.81, i64 noundef %35) #15
  br label %53

matroska_find_track_by_num.exit:                  ; preds = %.lr.ph.i
  %44 = getelementptr inbounds nuw i8, ptr %40, i64 528
  %45 = load ptr, ptr %44, align 8, !tbaa !188
  %.not31 = icmp eq ptr %45, null
  br i1 %.not31, label %53, label %46

46:                                               ; preds = %matroska_find_track_by_num.exit
  %47 = getelementptr inbounds nuw i8, ptr %34, i64 8
  %48 = load i64, ptr %47, align 8, !tbaa !393
  %49 = load i64, ptr %24, align 8, !tbaa !60
  %50 = add i64 %49, %48
  %51 = load i64, ptr %28, align 8, !tbaa !388
  %52 = tail call i32 @av_add_index_entry(ptr noundef nonnull %45, i64 noundef %50, i64 noundef %51, i32 noundef 0, i32 noundef 0, i32 noundef 1) #15
  br label %53

53:                                               ; preds = %matroska_find_track_by_num.exit.thread, %46, %matroska_find_track_by_num.exit
  %indvars.iv.next = add nuw nsw i64 %indvars.iv, 1
  %54 = load i32, ptr %29, align 8, !tbaa !53
  %55 = sext i32 %54 to i64
  %56 = icmp slt i64 %indvars.iv.next, %55
  br i1 %56, label %.lr.ph, label %._crit_edge.loopexit, !llvm.loop !394

._crit_edge.loopexit:                             ; preds = %53
  %.pre = load i32, ptr %8, align 8, !tbaa !53
  br label %._crit_edge

._crit_edge:                                      ; preds = %._crit_edge.loopexit, %26
  %57 = phi i32 [ %.pre, %._crit_edge.loopexit ], [ %27, %26 ]
  %indvars.iv.next41 = add nuw nsw i64 %indvars.iv40, 1
  %58 = sext i32 %57 to i64
  %59 = icmp slt i64 %indvars.iv.next41, %58
  br i1 %59, label %26, label %.loopexit, !llvm.loop !395

.loopexit:                                        ; preds = %._crit_edge, %7, %1, %25
  ret void
}